; Function Attrs: nounwind uwtable
define internal noalias ptr @kbkdf_new(ptr noundef %0) #0 {
  %2 = tail call i32 @ossl_prov_is_running() #7
  %.not = icmp eq i32 %2, 0
  br i1 %.not, label %11, label %3

3:                                                ; preds = %1
  %4 = tail call noalias ptr @CRYPTO_zalloc(i64 noundef 112, ptr noundef nonnull @.str, i32 noundef 121) #7
  %5 = icmp eq ptr %4, null
  br i1 %5, label %11, label %6

6:                                                ; preds = %3
  store ptr %0, ptr %4, align 8, !tbaa !3
  %7 = getelementptr inbounds nuw i8, ptr %4, i64 24
  store i32 32, ptr %7, align 8, !tbaa !12
  %8 = getelementptr inbounds nuw i8, ptr %4, i64 96
  store i32 1, ptr %8, align 8, !tbaa !13
  %9 = getelementptr inbounds nuw i8, ptr %4, i64 104
  store i32 1, ptr %9, align 8, !tbaa !14
  %10 = getelementptr inbounds nuw i8, ptr %4, i64 100
  store i32 0, ptr %10, align 4, !tbaa !15
  br label %11

11:                                               ; preds = %3, %1, %6
  %.0 = phi ptr [ %4, %6 ], [ null, %1 ], [ null, %3 ]
  ret ptr %.0
}